target datalayout = "e-m:e-p270:32:32-p271:32:32-p272:64:64-i64:64-i128:128-f80:128-n8:16:32:64-S128"
target triple = "x86_64-pc-linux-gnu"

; Function Attrs: inlinehint nounwind sspstrong uwtable
define internal i64 @external_str_new_cstr(ptr noundef %0) #5 {
  %2 = alloca ptr, align 8
  store ptr %0, ptr %2, align 8, !tbaa !7
  %3 = load ptr, ptr %2, align 8, !tbaa !7
  %4 = call i64 @rb_external_str_new_cstr(ptr noundef %3)
  ret i64 %4
}

; Function Attrs: nounwind sspstrong uwtable
define dso_local void @ruby_set_argv(i32 noundef %0, ptr noundef %1) #0 {
  %3 = alloca i32, align 4
  %4 = alloca ptr, align 8
  %5 = alloca i32, align 4
  %6 = alloca i64, align 8
  %7 = alloca i64, align 8
  store i32 %0, ptr %3, align 4, !tbaa !12
  store ptr %1, ptr %4, align 8, !tbaa !77
  call void @llvm.lifetime.start.p0(i64 4, ptr %5) #24
  call void @llvm.lifetime.start.p0(i64 8, ptr %6) #24
  %8 = call i64 @rb_get_argv()
  store i64 %8, ptr %6, align 8, !tbaa !42
  %9 = load i64, ptr %6, align 8, !tbaa !42
  %10 = call i64 @rb_ary_clear(i64 noundef %9)
  store i32 0, ptr %5, align 4, !tbaa !12
  br label %11

11:                                               ; preds = %26, %2
  %12 = load i32, ptr %5, align 4, !tbaa !12
  %13 = load i32, ptr %3, align 4, !tbaa !12
  %14 = icmp slt i32 %12, %13
  br i1 %14, label %15, label %29

15:                                               ; preds = %11
  call void @llvm.lifetime.start.p0(i64 8, ptr %7) #24
  %16 = load ptr, ptr %4, align 8, !tbaa !77
  %17 = load i32, ptr %5, align 4, !tbaa !12
  %18 = sext i32 %17 to i64
  %19 = getelementptr ptr, ptr %16, i64 %18
  %20 = load ptr, ptr %19, align 8, !tbaa !7
  %21 = call i64 @external_str_new_cstr(ptr noundef %20)
  store i64 %21, ptr %7, align 8, !tbaa !42
  %22 = load i64, ptr %7, align 8, !tbaa !42
  call void @rb_obj_freeze_inline(i64 noundef %22)
  %23 = load i64, ptr %6, align 8, !tbaa !42
  %24 = load i64, ptr %7, align 8, !tbaa !42
  %25 = call i64 @rb_ary_push(i64 noundef %23, i64 noundef %24)
  call void @llvm.lifetime.end.p0(i64 8, ptr %7) #24
  br label %26

26:                                               ; preds = %15
  %27 = load i32, ptr %5, align 4, !tbaa !12
  %28 = add i32 %27, 1
  store i32 %28, ptr %5, align 4, !tbaa !12
  br label %11, !llvm.loop !78

29:                                               ; preds = %11
  call void @llvm.lifetime.end.p0(i64 8, ptr %6) #24
  call void @llvm.lifetime.end.p0(i64 4, ptr %5) #24
  ret void
}