; Function Attrs: nounwind sspstrong uwtable
define dso_local void @ruby_set_argv(i32 noundef %0, ptr noundef readonly captures(none) %1) local_unnamed_addr #0 {
  %3 = tail call i64 @rb_get_argv() #25
  %4 = tail call i64 @rb_ary_clear(i64 noundef %3) #25
  %5 = icmp sgt i32 %0, 0
  br i1 %5, label %.lr.ph.preheader, label %._crit_edge

.lr.ph.preheader:                                 ; preds = %2
  %wide.trip.count = zext nneg i32 %0 to i64
  br label %.lr.ph

.lr.ph:                                           ; preds = %.lr.ph.preheader, %.lr.ph
  %indvars.iv = phi i64 [ 0, %.lr.ph.preheader ], [ %indvars.iv.next, %.lr.ph ]
  %6 = getelementptr ptr, ptr %1, i64 %indvars.iv
  %7 = load ptr, ptr %6, align 8, !tbaa !76
  %8 = tail call i64 @rb_external_str_new_cstr(ptr noundef %7) #25
  tail call void @rb_obj_freeze_inline(i64 noundef %8) #25
  %9 = tail call i64 @rb_ary_push(i64 noundef %3, i64 noundef %8) #25
  %indvars.iv.next = add nuw nsw i64 %indvars.iv, 1
  %exitcond.not = icmp eq i64 %indvars.iv.next, %wide.trip.count
  br i1 %exitcond.not, label %._crit_edge, label %.lr.ph, !llvm.loop !77

._crit_edge:                                      ; preds = %.lr.ph, %2
  ret void
}